target datalayout = "e-m:e-p270:32:32-p271:32:32-p272:64:64-i64:64-i128:128-f80:128-n8:16:32:64-S128"
target triple = "x86_64-pc-linux-gnu"

%struct.AVFilterContext = type { ptr, ptr, ptr, ptr, ptr, i32, ptr, ptr, i32, ptr, ptr, i32, i32, ptr, ptr, ptr, ptr, i32, ptr, i32, i32 }
%struct.ATiltContext = type { ptr, double, double, double, double, i32, [30 x %struct.Coeffs], ptr, ptr }
%struct.Coeffs = type { double, double, double, double }
%struct.ThreadData = type { ptr, ptr }
%struct.AVFilterLink = type { ptr, ptr, ptr, ptr, i32, i32, i32, i32, %struct.AVRational, i32, i32, i32, %struct.AVChannelLayout, %struct.AVRational, ptr, i32, %struct.AVFilterFormatsConfig, %struct.AVFilterFormatsConfig }
%struct.AVChannelLayout = type { i32, i32, %union.anon.1, ptr }
%union.anon.1 = type { i64 }
%struct.AVRational = type { i32, i32 }
%struct.AVFilterFormatsConfig = type { ptr, ptr, ptr, ptr, ptr }
%struct.AVFrame = type { [8 x ptr], [8 x i32], ptr, i32, i32, i32, i32, i32, %struct.AVRational, i64, i64, %struct.AVRational, i32, ptr, i32, i32, [8 x ptr], ptr, i32, ptr, i32, i32, i32, i32, i32, i32, i32, i64, ptr, i32, ptr, ptr, i64, i64, i64, i64, ptr, %struct.AVChannelLayout, i64 }

; Function Attrs: nounwind uwtable
define internal i32 @filter_frame(ptr noundef %0, ptr noundef %1) #1 {
  %3 = alloca i32, align 4
  %4 = alloca ptr, align 8
  %5 = alloca ptr, align 8
  %6 = alloca ptr, align 8
  %7 = alloca ptr, align 8
  %8 = alloca ptr, align 8
  %9 = alloca %struct.ThreadData, align 8
  %10 = alloca ptr, align 8
  %11 = alloca i32, align 4
  store ptr %0, ptr %4, align 8, !tbaa !26
  store ptr %1, ptr %5, align 8, !tbaa !28
  call void @llvm.lifetime.start.p0(i64 8, ptr %6) #6
  %12 = load ptr, ptr %4, align 8, !tbaa !26
  %13 = getelementptr inbounds nuw %struct.AVFilterLink, ptr %12, i32 0, i32 2
  %14 = load ptr, ptr %13, align 8, !tbaa !30
  store ptr %14, ptr %6, align 8, !tbaa !4
  call void @llvm.lifetime.start.p0(i64 8, ptr %7) #6
  %15 = load ptr, ptr %6, align 8, !tbaa !4
  %16 = getelementptr inbounds nuw %struct.AVFilterContext, ptr %15, i32 0, i32 9
  %17 = load ptr, ptr %16, align 8, !tbaa !9
  store ptr %17, ptr %7, align 8, !tbaa !22
  call void @llvm.lifetime.start.p0(i64 8, ptr %8) #6
  %18 = load ptr, ptr %6, align 8, !tbaa !4
  %19 = getelementptr inbounds nuw %struct.AVFilterContext, ptr %18, i32 0, i32 7
  %20 = load ptr, ptr %19, align 8, !tbaa !38
  %21 = getelementptr inbounds ptr, ptr %20, i64 0
  %22 = load ptr, ptr %21, align 8, !tbaa !26
  store ptr %22, ptr %8, align 8, !tbaa !26
  call void @llvm.lifetime.start.p0(i64 16, ptr %9) #6
  call void @llvm.lifetime.start.p0(i64 8, ptr %10) #6
  %23 = load ptr, ptr %5, align 8, !tbaa !28
  %24 = call i32 @av_frame_is_writable(ptr noundef %23)
  %25 = icmp ne i32 %24, 0
  br i1 %25, label %26, label %28

26:                                               ; preds = %2
  %27 = load ptr, ptr %5, align 8, !tbaa !28
  store ptr %27, ptr %10, align 8, !tbaa !28
  br label %41

28:                                               ; preds = %2
  %29 = load ptr, ptr %8, align 8, !tbaa !26
  %30 = load ptr, ptr %5, align 8, !tbaa !28
  %31 = getelementptr inbounds nuw %struct.AVFrame, ptr %30, i32 0, i32 5
  %32 = load i32, ptr %31, align 8, !tbaa !39
  %33 = call ptr @ff_get_audio_buffer(ptr noundef %29, i32 noundef %32)
  store ptr %33, ptr %10, align 8, !tbaa !28
  %34 = load ptr, ptr %10, align 8, !tbaa !28
  %35 = icmp ne ptr %34, null
  br i1 %35, label %37, label %36

36:                                               ; preds = %28
  call void @av_frame_free(ptr noundef %5)
  store i32 -12, ptr %3, align 4
  store i32 1, ptr %11, align 4
  br label %76

37:                                               ; preds = %28
  %38 = load ptr, ptr %10, align 8, !tbaa !28
  %39 = load ptr, ptr %5, align 8, !tbaa !28
  %40 = call i32 @av_frame_copy_props(ptr noundef %38, ptr noundef %39)
  br label %41

41:                                               ; preds = %37, %26
  %42 = load ptr, ptr %5, align 8, !tbaa !28
  %43 = getelementptr inbounds nuw %struct.ThreadData, ptr %9, i32 0, i32 0
  store ptr %42, ptr %43, align 8, !tbaa !45
  %44 = load ptr, ptr %10, align 8, !tbaa !28
  %45 = getelementptr inbounds nuw %struct.ThreadData, ptr %9, i32 0, i32 1
  store ptr %44, ptr %45, align 8, !tbaa !47
  %46 = load ptr, ptr %6, align 8, !tbaa !4
  %47 = load ptr, ptr %7, align 8, !tbaa !22
  %48 = getelementptr inbounds nuw %struct.ATiltContext, ptr %47, i32 0, i32 8
  %49 = load ptr, ptr %48, align 8, !tbaa !48
  %50 = load ptr, ptr %4, align 8, !tbaa !26
  %51 = getelementptr inbounds nuw %struct.AVFilterLink, ptr %50, i32 0, i32 12
  %52 = getelementptr inbounds nuw %struct.AVChannelLayout, ptr %51, i32 0, i32 1
  %53 = load i32, ptr %52, align 4, !tbaa !51
  %54 = load ptr, ptr %6, align 8, !tbaa !4
  %55 = call i32 @ff_filter_get_nb_threads(ptr noundef %54) #7
  %56 = icmp sgt i32 %53, %55
  br i1 %56, label %57, label %60

57:                                               ; preds = %41
  %58 = load ptr, ptr %6, align 8, !tbaa !4
  %59 = call i32 @ff_filter_get_nb_threads(ptr noundef %58) #7
  br label %65

60:                                               ; preds = %41
  %61 = load ptr, ptr %4, align 8, !tbaa !26
  %62 = getelementptr inbounds nuw %struct.AVFilterLink, ptr %61, i32 0, i32 12
  %63 = getelementptr inbounds nuw %struct.AVChannelLayout, ptr %62, i32 0, i32 1
  %64 = load i32, ptr %63, align 4, !tbaa !51
  br label %65

65:                                               ; preds = %60, %57
  %66 = phi i32 [ %59, %57 ], [ %64, %60 ]
  %67 = call i32 @ff_filter_execute(ptr noundef %46, ptr noundef %49, ptr noundef %9, ptr noundef null, i32 noundef %66)
  %68 = load ptr, ptr %10, align 8, !tbaa !28
  %69 = load ptr, ptr %5, align 8, !tbaa !28
  %70 = icmp ne ptr %68, %69
  br i1 %70, label %71, label %72

71:                                               ; preds = %65
  call void @av_frame_free(ptr noundef %5)
  br label %72

72:                                               ; preds = %71, %65
  %73 = load ptr, ptr %8, align 8, !tbaa !26
  %74 = load ptr, ptr %10, align 8, !tbaa !28
  %75 = call i32 @ff_filter_frame(ptr noundef %73, ptr noundef %74)
  store i32 %75, ptr %3, align 4
  store i32 1, ptr %11, align 4
  br label %76

76:                                               ; preds = %72, %36
  call void @llvm.lifetime.end.p0(i64 8, ptr %10) #6
  call void @llvm.lifetime.end.p0(i64 16, ptr %9) #6
  call void @llvm.lifetime.end.p0(i64 8, ptr %8) #6
  call void @llvm.lifetime.end.p0(i64 8, ptr %7) #6
  call void @llvm.lifetime.end.p0(i64 8, ptr %6) #6
  %77 = load i32, ptr %3, align 4
  ret i32 %77
}