; Function Attrs: nounwind uwtable
define internal i32 @filter_frame(ptr noundef readonly captures(none) %0, ptr noundef %1) #1 {
  %3 = alloca ptr, align 8
  %4 = alloca %struct.ThreadData, align 8
  store ptr %1, ptr %3, align 8, !tbaa !46
  %5 = getelementptr inbounds nuw i8, ptr %0, i64 16
  %6 = load ptr, ptr %5, align 8, !tbaa !47
  %7 = getelementptr inbounds nuw i8, ptr %6, i64 72
  %8 = load ptr, ptr %7, align 8, !tbaa !4
  %9 = getelementptr inbounds nuw i8, ptr %6, i64 56
  %10 = load ptr, ptr %9, align 8, !tbaa !48
  %11 = load ptr, ptr %10, align 8, !tbaa !21
  call void @llvm.lifetime.start.p0(i64 16, ptr nonnull %4) #8
  %12 = tail call i32 @av_frame_is_writable(ptr noundef %1) #8
  %.not = icmp eq i32 %12, 0
  br i1 %.not, label %13, label %20

13:                                               ; preds = %2
  %14 = getelementptr inbounds nuw i8, ptr %1, i64 112
  %15 = load i32, ptr %14, align 8, !tbaa !49
  %16 = tail call ptr @ff_get_audio_buffer(ptr noundef %11, i32 noundef %15) #8
  %.not20 = icmp eq ptr %16, null
  br i1 %.not20, label %17, label %18

17:                                               ; preds = %13
  call void @av_frame_free(ptr noundef nonnull %3) #8
  br label %32

18:                                               ; preds = %13
  %19 = tail call i32 @av_frame_copy_props(ptr noundef nonnull %16, ptr noundef nonnull %1) #8
  br label %20

20:                                               ; preds = %2, %18
  %.0 = phi ptr [ %16, %18 ], [ %1, %2 ]
  store ptr %1, ptr %4, align 8, !tbaa !55
  %21 = getelementptr inbounds nuw i8, ptr %4, i64 8
  store ptr %.0, ptr %21, align 8, !tbaa !57
  %22 = getelementptr inbounds nuw i8, ptr %8, i64 1016
  %23 = load ptr, ptr %22, align 8, !tbaa !58
  %24 = getelementptr inbounds nuw i8, ptr %0, i64 76
  %25 = load i32, ptr %24, align 4, !tbaa !59
  %26 = tail call i32 @ff_filter_get_nb_threads(ptr noundef nonnull %6) #9
  %. = tail call i32 @llvm.smin.i32(i32 %25, i32 %26)
  %27 = call i32 @ff_filter_execute(ptr noundef nonnull %6, ptr noundef %23, ptr noundef nonnull %4, ptr noundef null, i32 noundef %.) #8
  %28 = load ptr, ptr %3, align 8, !tbaa !46
  %.not21 = icmp eq ptr %.0, %28
  br i1 %.not21, label %30, label %29

29:                                               ; preds = %20
  call void @av_frame_free(ptr noundef nonnull %3) #8
  br label %30

30:                                               ; preds = %29, %20
  %31 = call i32 @ff_filter_frame(ptr noundef %11, ptr noundef %.0) #8
  br label %32

32:                                               ; preds = %30, %17
  %.016 = phi i32 [ %31, %30 ], [ -12, %17 ]
  call void @llvm.lifetime.end.p0(i64 16, ptr nonnull %4) #8
  ret i32 %.016
}